target datalayout = "e-m:e-p270:32:32-p271:32:32-p272:64:64-i64:64-i128:128-f80:128-n8:16:32:64-S128"
target triple = "x86_64-pc-linux-gnu"

%struct._lv_font_t = type { ptr, ptr, ptr, i32, i32, i8, i8, i8, ptr, ptr, ptr }
%struct.lv_freetype_info_t = type { ptr, i32, i32, i32 }

@lv_font_montserrat_14 = external constant %struct._lv_font_t, align 8

; Function Attrs: nounwind uwtable
define internal ptr @strncpy_until(ptr noundef %0, ptr noundef %1, i64 noundef %2, i8 noundef signext %3) #0 {
  %5 = alloca ptr, align 8
  %6 = alloca ptr, align 8
  %7 = alloca i64, align 8
  %8 = alloca i8, align 1
  %9 = alloca i64, align 8
  store ptr %0, ptr %5, align 8, !tbaa !7
  store ptr %1, ptr %6, align 8, !tbaa !7
  store i64 %2, ptr %7, align 8, !tbaa !35
  store i8 %3, ptr %8, align 1, !tbaa !38
  br label %10

10:                                               ; preds = %4
  %11 = load ptr, ptr %5, align 8, !tbaa !7
  %12 = icmp ne ptr %11, null
  br i1 %12, label %17, label %13

13:                                               ; preds = %10
  br label %14

14:                                               ; preds = %13
  br label %15

15:                                               ; preds = %14
  br label %16

16:                                               ; preds = %15, %16
  br label %16

17:                                               ; preds = %10
  br label %18

18:                                               ; preds = %17
  br label %19

19:                                               ; preds = %18
  %20 = load ptr, ptr %6, align 8, !tbaa !7
  %21 = icmp ne ptr %20, null
  br i1 %21, label %26, label %22

22:                                               ; preds = %19
  br label %23

23:                                               ; preds = %22
  br label %24

24:                                               ; preds = %23
  br label %25

25:                                               ; preds = %24, %25
  br label %25

26:                                               ; preds = %19
  br label %27

27:                                               ; preds = %26
  call void @llvm.lifetime.start.p0(i64 8, ptr %9) #6
  store i64 0, ptr %9, align 8, !tbaa !35
  br label %28

28:                                               ; preds = %46, %27
  %29 = load i64, ptr %9, align 8, !tbaa !35
  %30 = load i64, ptr %7, align 8, !tbaa !35
  %31 = icmp ult i64 %29, %30
  br i1 %31, label %32, label %44

32:                                               ; preds = %28
  %33 = load ptr, ptr %6, align 8, !tbaa !7
  %34 = load i8, ptr %33, align 1, !tbaa !38
  %35 = sext i8 %34 to i32
  %36 = icmp ne i32 %35, 0
  br i1 %36, label %37, label %44

37:                                               ; preds = %32
  %38 = load ptr, ptr %6, align 8, !tbaa !7
  %39 = load i8, ptr %38, align 1, !tbaa !38
  %40 = sext i8 %39 to i32
  %41 = load i8, ptr %8, align 1, !tbaa !38
  %42 = sext i8 %41 to i32
  %43 = icmp ne i32 %40, %42
  br label %44

44:                                               ; preds = %37, %32, %28
  %45 = phi i1 [ false, %32 ], [ false, %28 ], [ %43, %37 ]
  br i1 %45, label %46, label %54

46:                                               ; preds = %44
  %47 = load ptr, ptr %6, align 8, !tbaa !7
  %48 = getelementptr inbounds nuw i8, ptr %47, i32 1
  store ptr %48, ptr %6, align 8, !tbaa !7
  %49 = load i8, ptr %47, align 1, !tbaa !38
  %50 = load ptr, ptr %5, align 8, !tbaa !7
  %51 = getelementptr inbounds nuw i8, ptr %50, i32 1
  store ptr %51, ptr %5, align 8, !tbaa !7
  store i8 %49, ptr %50, align 1, !tbaa !38
  %52 = load i64, ptr %9, align 8, !tbaa !35
  %53 = add i64 %52, 1
  store i64 %53, ptr %9, align 8, !tbaa !35
  br label %28, !llvm.loop !50

54:                                               ; preds = %44
  %55 = load i64, ptr %9, align 8, !tbaa !35
  %56 = load i64, ptr %7, align 8, !tbaa !35
  %57 = icmp ult i64 %55, %56
  br i1 %57, label %58, label %60

58:                                               ; preds = %54
  %59 = load ptr, ptr %5, align 8, !tbaa !7
  store i8 0, ptr %59, align 1, !tbaa !38
  br label %60

60:                                               ; preds = %58, %54
  %61 = load ptr, ptr %6, align 8, !tbaa !7
  call void @llvm.lifetime.end.p0(i64 8, ptr %9) #6
  ret ptr %61
}

; Function Attrs: nounwind uwtable
define internal ptr @lv_font_manager_create_font_family(ptr noundef %0, ptr noundef %1) #0 {
  %3 = alloca ptr, align 8
  %4 = alloca ptr, align 8
  %5 = alloca ptr, align 8
  %6 = alloca ptr, align 8
  %7 = alloca ptr, align 8
  %8 = alloca [32 x i8], align 16
  %9 = alloca %struct.lv_freetype_info_t, align 8
  %10 = alloca ptr, align 8
  %11 = alloca i32, align 4
  store ptr %0, ptr %3, align 8, !tbaa !7
  store ptr %1, ptr %4, align 8, !tbaa !7
  br label %12

12:                                               ; preds = %2
  %13 = load ptr, ptr %3, align 8, !tbaa !7
  %14 = icmp ne ptr %13, null
  br i1 %14, label %19, label %15

15:                                               ; preds = %12
  br label %16

16:                                               ; preds = %15
  br label %17

17:                                               ; preds = %16
  br label %18

18:                                               ; preds = %17, %18
  br label %18

19:                                               ; preds = %12
  br label %20

20:                                               ; preds = %19
  br label %21

21:                                               ; preds = %20
  %22 = load ptr, ptr %4, align 8, !tbaa !7
  %23 = icmp ne ptr %22, null
  br i1 %23, label %28, label %24

24:                                               ; preds = %21
  br label %25

25:                                               ; preds = %24
  br label %26

26:                                               ; preds = %25
  br label %27

27:                                               ; preds = %26, %27
  br label %27

28:                                               ; preds = %21
  br label %29

29:                                               ; preds = %28
  call void @llvm.lifetime.start.p0(i64 8, ptr %5) #6
  store ptr null, ptr %5, align 8, !tbaa !7
  call void @llvm.lifetime.start.p0(i64 8, ptr %6) #6
  store ptr null, ptr %6, align 8, !tbaa !7
  call void @llvm.lifetime.start.p0(i64 8, ptr %7) #6
  %30 = load ptr, ptr %4, align 8, !tbaa !7
  %31 = getelementptr inbounds nuw %struct.lv_freetype_info_t, ptr %30, i32 0, i32 0
  %32 = load ptr, ptr %31, align 8, !tbaa !27
  store ptr %32, ptr %7, align 8, !tbaa !7
  br label %33

33:                                               ; preds = %29
  br label %34

34:                                               ; preds = %33
  br label %35

35:                                               ; preds = %34
  call void @llvm.lifetime.start.p0(i64 32, ptr %8) #6
  call void @llvm.memset.p0.i64(ptr align 16 %8, i8 0, i64 32, i1 false)
  call void @llvm.lifetime.start.p0(i64 24, ptr %9) #6
  %36 = load ptr, ptr %4, align 8, !tbaa !7
  call void @llvm.memcpy.p0.p0.i64(ptr align 8 %9, ptr align 8 %36, i64 24, i1 false), !tbaa.struct !37
  %37 = getelementptr inbounds [32 x i8], ptr %8, i64 0, i64 0
  %38 = getelementptr inbounds nuw %struct.lv_freetype_info_t, ptr %9, i32 0, i32 0
  store ptr %37, ptr %38, align 8, !tbaa !27
  br label %39

39:                                               ; preds = %82, %35
  br label %40

40:                                               ; preds = %39
  %41 = getelementptr inbounds [32 x i8], ptr %8, i64 0, i64 0
  %42 = load ptr, ptr %7, align 8, !tbaa !7
  %43 = call ptr @strncpy_until(ptr noundef %41, ptr noundef %42, i64 noundef 31, i8 noundef signext 44)
  store ptr %43, ptr %7, align 8, !tbaa !7
  call void @llvm.lifetime.start.p0(i64 8, ptr %10) #6
  %44 = load ptr, ptr %3, align 8, !tbaa !7
  %45 = call ptr @lv_font_manager_create_font_single(ptr noundef %44, ptr noundef %9)
  store ptr %45, ptr %10, align 8, !tbaa !7
  %46 = load ptr, ptr %10, align 8, !tbaa !7
  %47 = icmp ne ptr %46, null
  br i1 %47, label %48, label %62

48:                                               ; preds = %40
  %49 = load ptr, ptr %5, align 8, !tbaa !7
  %50 = icmp ne ptr %49, null
  br i1 %50, label %53, label %51

51:                                               ; preds = %48
  %52 = load ptr, ptr %10, align 8, !tbaa !7
  store ptr %52, ptr %5, align 8, !tbaa !7
  br label %53

53:                                               ; preds = %51, %48
  %54 = load ptr, ptr %6, align 8, !tbaa !7
  %55 = icmp ne ptr %54, null
  br i1 %55, label %56, label %60

56:                                               ; preds = %53
  %57 = load ptr, ptr %10, align 8, !tbaa !7
  %58 = load ptr, ptr %6, align 8, !tbaa !7
  %59 = getelementptr inbounds nuw %struct._lv_font_t, ptr %58, i32 0, i32 9
  store ptr %57, ptr %59, align 8, !tbaa !32
  br label %60

60:                                               ; preds = %56, %53
  %61 = load ptr, ptr %10, align 8, !tbaa !7
  store ptr %61, ptr %6, align 8, !tbaa !7
  br label %62

62:                                               ; preds = %60, %40
  %63 = load ptr, ptr %7, align 8, !tbaa !7
  %64 = load i8, ptr %63, align 1, !tbaa !38
  %65 = sext i8 %64 to i32
  %66 = icmp eq i32 %65, 0
  br i1 %66, label %67, label %68

67:                                               ; preds = %62
  store i32 17, ptr %11, align 4
  br label %80

68:                                               ; preds = %62
  %69 = load ptr, ptr %7, align 8, !tbaa !7
  %70 = load i8, ptr %69, align 1, !tbaa !38
  %71 = sext i8 %70 to i32
  %72 = icmp ne i32 %71, 44
  br i1 %72, label %73, label %77

73:                                               ; preds = %68
  br label %74

74:                                               ; preds = %73
  br label %75

75:                                               ; preds = %74
  br label %76

76:                                               ; preds = %75
  store i32 17, ptr %11, align 4
  br label %80

77:                                               ; preds = %68
  %78 = load ptr, ptr %7, align 8, !tbaa !7
  %79 = getelementptr inbounds nuw i8, ptr %78, i32 1
  store ptr %79, ptr %7, align 8, !tbaa !7
  store i32 0, ptr %11, align 4
  br label %80

80:                                               ; preds = %77, %76, %67
  call void @llvm.lifetime.end.p0(i64 8, ptr %10) #6
  %81 = load i32, ptr %11, align 4
  switch i32 %81, label %85 [
    i32 0, label %82
    i32 17, label %83
  ]

82:                                               ; preds = %80
  br label %39

83:                                               ; preds = %80
  %84 = load ptr, ptr %5, align 8, !tbaa !7
  store i32 1, ptr %11, align 4
  call void @llvm.lifetime.end.p0(i64 24, ptr %9) #6
  call void @llvm.lifetime.end.p0(i64 32, ptr %8) #6
  call void @llvm.lifetime.end.p0(i64 8, ptr %7) #6
  call void @llvm.lifetime.end.p0(i64 8, ptr %6) #6
  call void @llvm.lifetime.end.p0(i64 8, ptr %5) #6
  ret ptr %84

85:                                               ; preds = %80
  unreachable
}

; Function Attrs: inlinehint nounwind uwtable
define internal void @lv_memzero(ptr noundef %0, i64 noundef %1) #3 {
  %3 = alloca ptr, align 8
  %4 = alloca i64, align 8
  store ptr %0, ptr %3, align 8, !tbaa !7
  store i64 %1, ptr %4, align 8, !tbaa !35
  %5 = load ptr, ptr %3, align 8, !tbaa !7
  %6 = load i64, ptr %4, align 8, !tbaa !35
  call void @lv_memset(ptr noundef %5, i8 noundef zeroext 0, i64 noundef %6)
  ret void
}

; Function Attrs: nounwind uwtable
define ptr @lv_font_manager_create_font(ptr noundef %0, ptr noundef %1, i16 noundef zeroext %2, i32 noundef %3, i16 noundef zeroext %4) #0 {
  %6 = alloca ptr, align 8
  %7 = alloca ptr, align 8
  %8 = alloca i16, align 2
  %9 = alloca i32, align 4
  %10 = alloca i16, align 2
  %11 = alloca %struct.lv_freetype_info_t, align 8
  %12 = alloca ptr, align 8
  %13 = alloca ptr, align 8
  store ptr %0, ptr %6, align 8, !tbaa !7
  store ptr %1, ptr %7, align 8, !tbaa !7
  store i16 %2, ptr %8, align 2, !tbaa !25
  store i32 %3, ptr %9, align 4, !tbaa !3
  store i16 %4, ptr %10, align 2, !tbaa !25
  br label %14

14:                                               ; preds = %5
  %15 = load ptr, ptr %6, align 8, !tbaa !7
  %16 = icmp ne ptr %15, null
  br i1 %16, label %21, label %17

17:                                               ; preds = %14
  br label %18

18:                                               ; preds = %17
  br label %19

19:                                               ; preds = %18
  br label %20

20:                                               ; preds = %19, %20
  br label %20

21:                                               ; preds = %14
  br label %22

22:                                               ; preds = %21
  br label %23

23:                                               ; preds = %22
  %24 = load ptr, ptr %7, align 8, !tbaa !7
  %25 = icmp ne ptr %24, null
  br i1 %25, label %30, label %26

26:                                               ; preds = %23
  br label %27

27:                                               ; preds = %26
  br label %28

28:                                               ; preds = %27
  br label %29

29:                                               ; preds = %28, %29
  br label %29

30:                                               ; preds = %23
  br label %31

31:                                               ; preds = %30
  call void @llvm.lifetime.start.p0(i64 24, ptr %11) #6
  call void @lv_memzero(ptr noundef %11, i64 noundef 24)
  %32 = load ptr, ptr %7, align 8, !tbaa !7
  %33 = getelementptr inbounds nuw %struct.lv_freetype_info_t, ptr %11, i32 0, i32 0
  store ptr %32, ptr %33, align 8, !tbaa !27
  %34 = load i16, ptr %8, align 2, !tbaa !25
  %35 = zext i16 %34 to i32
  %36 = getelementptr inbounds nuw %struct.lv_freetype_info_t, ptr %11, i32 0, i32 1
  store i32 %35, ptr %36, align 8, !tbaa !29
  %37 = load i32, ptr %9, align 4, !tbaa !3
  %38 = getelementptr inbounds nuw %struct.lv_freetype_info_t, ptr %11, i32 0, i32 3
  store i32 %37, ptr %38, align 8, !tbaa !30
  %39 = load i16, ptr %10, align 2, !tbaa !25
  %40 = zext i16 %39 to i32
  %41 = getelementptr inbounds nuw %struct.lv_freetype_info_t, ptr %11, i32 0, i32 2
  store i32 %40, ptr %41, align 4, !tbaa !31
  call void @llvm.lifetime.start.p0(i64 8, ptr %12) #6
  %42 = getelementptr inbounds nuw %struct.lv_freetype_info_t, ptr %11, i32 0, i32 0
  %43 = load ptr, ptr %42, align 8, !tbaa !27
  %44 = call ptr @lv_strchr(ptr noundef %43, i32 noundef 44)
  %45 = icmp ne ptr %44, null
  br i1 %45, label %46, label %49

46:                                               ; preds = %31
  %47 = load ptr, ptr %6, align 8, !tbaa !7
  %48 = call ptr @lv_font_manager_create_font_family(ptr noundef %47, ptr noundef %11)
  store ptr %48, ptr %12, align 8, !tbaa !7
  br label %52

49:                                               ; preds = %31
  %50 = load ptr, ptr %6, align 8, !tbaa !7
  %51 = call ptr @lv_font_manager_create_font_single(ptr noundef %50, ptr noundef %11)
  store ptr %51, ptr %12, align 8, !tbaa !7
  br label %52

52:                                               ; preds = %49, %46
  call void @llvm.lifetime.start.p0(i64 8, ptr %13) #6
  %53 = load ptr, ptr %12, align 8, !tbaa !7
  store ptr %53, ptr %13, align 8, !tbaa !7
  br label %54

54:                                               ; preds = %65, %52
  %55 = load ptr, ptr %13, align 8, !tbaa !7
  %56 = icmp ne ptr %55, null
  br i1 %56, label %57, label %69

57:                                               ; preds = %54
  %58 = load ptr, ptr %13, align 8, !tbaa !7
  %59 = getelementptr inbounds nuw %struct._lv_font_t, ptr %58, i32 0, i32 9
  %60 = load ptr, ptr %59, align 8, !tbaa !32
  %61 = icmp eq ptr %60, null
  br i1 %61, label %62, label %65

62:                                               ; preds = %57
  %63 = load ptr, ptr %13, align 8, !tbaa !7
  %64 = getelementptr inbounds nuw %struct._lv_font_t, ptr %63, i32 0, i32 9
  store ptr @lv_font_montserrat_14, ptr %64, align 8, !tbaa !32
  br label %69

65:                                               ; preds = %57
  %66 = load ptr, ptr %13, align 8, !tbaa !7
  %67 = getelementptr inbounds nuw %struct._lv_font_t, ptr %66, i32 0, i32 9
  %68 = load ptr, ptr %67, align 8, !tbaa !32
  store ptr %68, ptr %13, align 8, !tbaa !7
  br label %54, !llvm.loop !34

69:                                               ; preds = %62, %54
  %70 = load ptr, ptr %12, align 8, !tbaa !7
  call void @llvm.lifetime.end.p0(i64 8, ptr %13) #6
  call void @llvm.lifetime.end.p0(i64 8, ptr %12) #6
  call void @llvm.lifetime.end.p0(i64 24, ptr %11) #6
  ret ptr %70
}