; Function Attrs: nounwind uwtable
define ptr @lv_font_manager_create_font(ptr noundef %0, ptr noundef %1, i16 noundef zeroext %2, i32 noundef %3, i16 noundef zeroext %4) local_unnamed_addr #0 {
  %6 = alloca [32 x i8], align 16
  %7 = alloca %struct.lv_freetype_info_t, align 8
  %8 = alloca %struct.lv_freetype_info_t, align 8
  %.not = icmp eq ptr %0, null
  br i1 %.not, label %.preheader, label %9

.preheader:                                       ; preds = %5, %.preheader
  br label %.preheader

9:                                                ; preds = %5
  %.not17 = icmp eq ptr %1, null
  br i1 %.not17, label %.preheader20, label %10

.preheader20:                                     ; preds = %9, %.preheader20
  br label %.preheader20

10:                                               ; preds = %9
  call void @llvm.lifetime.start.p0(i64 24, ptr nonnull %8) #5
  call void @lv_memset(ptr noundef nonnull %8, i8 noundef zeroext 0, i64 noundef 24) #5
  store ptr %1, ptr %8, align 8, !tbaa !23
  %11 = zext i16 %2 to i32
  %12 = getelementptr inbounds nuw i8, ptr %8, i64 8
  store i32 %11, ptr %12, align 8, !tbaa !25
  %13 = getelementptr inbounds nuw i8, ptr %8, i64 16
  store i32 %3, ptr %13, align 8, !tbaa !26
  %14 = zext i16 %4 to i32
  %15 = getelementptr inbounds nuw i8, ptr %8, i64 12
  store i32 %14, ptr %15, align 4, !tbaa !27
  %16 = call ptr @lv_strchr(ptr noundef nonnull %1, i32 noundef 44) #5
  %.not18 = icmp eq ptr %16, null
  br i1 %.not18, label %32, label %17

17:                                               ; preds = %10
  %18 = load ptr, ptr %8, align 8, !tbaa !23
  call void @llvm.lifetime.start.p0(i64 32, ptr nonnull %6) #5
  call void @llvm.memset.p0.i64(ptr noundef nonnull align 16 dereferenceable(32) %6, i8 0, i64 32, i1 false)
  call void @llvm.lifetime.start.p0(i64 24, ptr nonnull %7) #5
  call void @llvm.memcpy.p0.p0.i64(ptr noundef nonnull align 8 dereferenceable(24) %7, ptr noundef nonnull readonly align 8 dereferenceable(24) %8, i64 24, i1 false), !tbaa.struct !28
  store ptr %6, ptr %7, align 8, !tbaa !23
  br label %19

19:                                               ; preds = %29, %17
  %.020.i = phi ptr [ null, %17 ], [ %.121.i, %29 ]
  %.018.i = phi ptr [ %18, %17 ], [ %31, %29 ]
  %.017.i = phi ptr [ null, %17 ], [ %.1.i, %29 ]
  %.not.i.i = icmp eq ptr %.018.i, null
  br i1 %.not.i.i, label %.preheader.i.i, label %.preheader21.i.i

.preheader.i.i:                                   ; preds = %19, %.preheader.i.i
  br label %.preheader.i.i

.preheader21.i.i:                                 ; preds = %19, %21
  %.027.i.i = phi i64 [ %24, %21 ], [ 0, %19 ]
  %.01326.i.i = phi ptr [ %23, %21 ], [ %6, %19 ]
  %.01425.i.i = phi ptr [ %22, %21 ], [ %.018.i, %19 ]
  %20 = load i8, ptr %.01425.i.i, align 1, !tbaa !31
  switch i8 %20, label %21 [
    i8 0, label %.critedge.i.i
    i8 44, label %.critedge.i.i
  ]

21:                                               ; preds = %.preheader21.i.i
  %22 = getelementptr inbounds nuw i8, ptr %.01425.i.i, i64 1
  %23 = getelementptr inbounds nuw i8, ptr %.01326.i.i, i64 1
  store i8 %20, ptr %.01326.i.i, align 1, !tbaa !31
  %24 = add nuw nsw i64 %.027.i.i, 1
  %exitcond.not.i.i = icmp eq i64 %24, 31
  br i1 %exitcond.not.i.i, label %strncpy_until.exit.i, label %.preheader21.i.i, !llvm.loop !32

.critedge.i.i:                                    ; preds = %.preheader21.i.i, %.preheader21.i.i
  store i8 0, ptr %.01326.i.i, align 1, !tbaa !31
  br label %strncpy_until.exit.i

strncpy_until.exit.i:                             ; preds = %21, %.critedge.i.i
  %.01424.i.i = phi ptr [ %.01425.i.i, %.critedge.i.i ], [ %22, %21 ]
  %25 = call fastcc ptr @lv_font_manager_create_font_single(ptr noundef nonnull %0, ptr noundef %7)
  %.not.i = icmp eq ptr %25, null
  br i1 %.not.i, label %29, label %26

26:                                               ; preds = %strncpy_until.exit.i
  %.not26.i = icmp eq ptr %.017.i, null
  %spec.select.i = select i1 %.not26.i, ptr %25, ptr %.017.i
  %.not27.i = icmp eq ptr %.020.i, null
  br i1 %.not27.i, label %29, label %27

27:                                               ; preds = %26
  %28 = getelementptr inbounds nuw i8, ptr %.020.i, i64 48
  store ptr %25, ptr %28, align 8, !tbaa !33
  br label %29

29:                                               ; preds = %27, %26, %strncpy_until.exit.i
  %.121.i = phi ptr [ %.020.i, %strncpy_until.exit.i ], [ %25, %27 ], [ %25, %26 ]
  %.1.i = phi ptr [ %.017.i, %strncpy_until.exit.i ], [ %spec.select.i, %27 ], [ %spec.select.i, %26 ]
  %30 = load i8, ptr %.01424.i.i, align 1, !tbaa !31
  %cond.i = icmp eq i8 %30, 44
  %31 = getelementptr inbounds nuw i8, ptr %.01424.i.i, i64 1
  br i1 %cond.i, label %19, label %lv_font_manager_create_font_family.exit

lv_font_manager_create_font_family.exit:          ; preds = %29
  call void @llvm.lifetime.end.p0(i64 24, ptr nonnull %7) #5
  call void @llvm.lifetime.end.p0(i64 32, ptr nonnull %6) #5
  br label %34

32:                                               ; preds = %10
  %33 = call fastcc ptr @lv_font_manager_create_font_single(ptr noundef %0, ptr noundef %8)
  br label %34

34:                                               ; preds = %32, %lv_font_manager_create_font_family.exit
  %.013 = phi ptr [ %.1.i, %lv_font_manager_create_font_family.exit ], [ %33, %32 ]
  br label %35

35:                                               ; preds = %36, %34
  %.0 = phi ptr [ %.013, %34 ], [ %38, %36 ]
  %.not19 = icmp eq ptr %.0, null
  br i1 %.not19, label %.loopexit, label %36

36:                                               ; preds = %35
  %37 = getelementptr inbounds nuw i8, ptr %.0, i64 48
  %38 = load ptr, ptr %37, align 8, !tbaa !33
  %39 = icmp eq ptr %38, null
  br i1 %39, label %40, label %35, !llvm.loop !35

40:                                               ; preds = %36
  %41 = getelementptr inbounds nuw i8, ptr %.0, i64 48
  store ptr @lv_font_montserrat_14, ptr %41, align 8, !tbaa !33
  br label %.loopexit

.loopexit:                                        ; preds = %35, %40
  call void @llvm.lifetime.end.p0(i64 24, ptr nonnull %8) #5
  ret ptr %.013
}